target datalayout = "e-m:e-p270:32:32-p271:32:32-p272:64:64-i64:64-i128:128-f80:128-n8:16:32:64-S128"
target triple = "x86_64-pc-linux-gnu"

%struct.ossl_quic_frame_conn_close_st = type { i8, i64, i64, ptr, i64 }

@.str.5 = private unnamed_addr constant [33 x i8] c"../openssl/test/quic_wire_test.c\00", align 1
@.str.23 = private unnamed_addr constant [9 x i8] c"fail < 0\00", align 1
@.str.55 = private unnamed_addr constant [7 x i8] c"0x1234\00", align 1
@.str.68 = private unnamed_addr constant [2 x i8] c"0\00", align 1
@.str.81 = private unnamed_addr constant [7 x i8] c"0x9781\00", align 1
@encode_case_20_f = internal constant { i8, [7 x i8], i64, i64, ptr, i64 } { i8 0, [7 x i8] zeroinitializer, i64 4660, i64 38785, ptr @encode_case_20_reason, i64 18 }, align 8
@.str.133 = private unnamed_addr constant [48 x i8] c"ossl_quic_wire_decode_frame_conn_close(pkt, &f)\00", align 1
@.str.134 = private unnamed_addr constant [9 x i8] c"f.is_app\00", align 1
@.str.135 = private unnamed_addr constant [13 x i8] c"f.error_code\00", align 1
@.str.136 = private unnamed_addr constant [13 x i8] c"f.frame_type\00", align 1
@.str.137 = private unnamed_addr constant [13 x i8] c"f.reason_len\00", align 1
@.str.138 = private unnamed_addr constant [3 x i8] c"18\00", align 1
@.str.139 = private unnamed_addr constant [9 x i8] c"f.reason\00", align 1
@.str.140 = private unnamed_addr constant [24 x i8] c"encode_case_20_f.reason\00", align 1

; Function Attrs: nounwind uwtable
define internal i32 @encode_case_20_dec(ptr noundef %0, i64 noundef %1) #0 {
  %3 = alloca i32, align 4
  %4 = alloca ptr, align 8
  %5 = alloca i64, align 8
  %6 = alloca %struct.ossl_quic_frame_conn_close_st, align 8
  %7 = alloca i32, align 4
  store ptr %0, ptr %4, align 8, !tbaa !40
  store i64 %1, ptr %5, align 8, !tbaa !19
  call void @llvm.lifetime.start.p0(i64 40, ptr %6) #5
  call void @llvm.memset.p0.i64(ptr align 8 %6, i8 0, i64 40, i1 false)
  %8 = load ptr, ptr %4, align 8, !tbaa !40
  %9 = call i32 @ossl_quic_wire_decode_frame_conn_close(ptr noundef %8, ptr noundef %6)
  %10 = load i64, ptr %5, align 8, !tbaa !19
  %11 = icmp slt i64 %10, 0
  %12 = zext i1 %11 to i32
  %13 = call i32 @test_int_eq(ptr noundef @.str.5, i32 noundef 981, ptr noundef @.str.133, ptr noundef @.str.23, i32 noundef %9, i32 noundef %12)
  %14 = icmp ne i32 %13, 0
  br i1 %14, label %16, label %15

15:                                               ; preds = %2
  store i32 0, ptr %3, align 4
  store i32 1, ptr %7, align 4
  br label %55

16:                                               ; preds = %2
  %17 = load i64, ptr %5, align 8, !tbaa !19
  %18 = icmp sge i64 %17, 0
  br i1 %18, label %19, label %20

19:                                               ; preds = %16
  store i32 1, ptr %3, align 4
  store i32 1, ptr %7, align 4
  br label %55

20:                                               ; preds = %16
  %21 = load i8, ptr %6, align 8
  %22 = and i8 %21, 1
  %23 = zext i8 %22 to i32
  %24 = call i32 @test_int_eq(ptr noundef @.str.5, i32 noundef 987, ptr noundef @.str.134, ptr noundef @.str.68, i32 noundef %23, i32 noundef 0)
  %25 = icmp ne i32 %24, 0
  br i1 %25, label %27, label %26

26:                                               ; preds = %20
  store i32 0, ptr %3, align 4
  store i32 1, ptr %7, align 4
  br label %55

27:                                               ; preds = %20
  %28 = getelementptr inbounds nuw %struct.ossl_quic_frame_conn_close_st, ptr %6, i32 0, i32 1
  %29 = load i64, ptr %28, align 8, !tbaa !69
  %30 = call i32 @test_uint64_t_eq(ptr noundef @.str.5, i32 noundef 990, ptr noundef @.str.135, ptr noundef @.str.55, i64 noundef %29, i64 noundef 4660)
  %31 = icmp ne i32 %30, 0
  br i1 %31, label %33, label %32

32:                                               ; preds = %27
  store i32 0, ptr %3, align 4
  store i32 1, ptr %7, align 4
  br label %55

33:                                               ; preds = %27
  %34 = getelementptr inbounds nuw %struct.ossl_quic_frame_conn_close_st, ptr %6, i32 0, i32 2
  %35 = load i64, ptr %34, align 8, !tbaa !71
  %36 = call i32 @test_uint64_t_eq(ptr noundef @.str.5, i32 noundef 993, ptr noundef @.str.136, ptr noundef @.str.81, i64 noundef %35, i64 noundef 38785)
  %37 = icmp ne i32 %36, 0
  br i1 %37, label %39, label %38

38:                                               ; preds = %33
  store i32 0, ptr %3, align 4
  store i32 1, ptr %7, align 4
  br label %55

39:                                               ; preds = %33
  %40 = getelementptr inbounds nuw %struct.ossl_quic_frame_conn_close_st, ptr %6, i32 0, i32 4
  %41 = load i64, ptr %40, align 8, !tbaa !72
  %42 = call i32 @test_size_t_eq(ptr noundef @.str.5, i32 noundef 996, ptr noundef @.str.137, ptr noundef @.str.138, i64 noundef %41, i64 noundef 18)
  %43 = icmp ne i32 %42, 0
  br i1 %43, label %45, label %44

44:                                               ; preds = %39
  store i32 0, ptr %3, align 4
  store i32 1, ptr %7, align 4
  br label %55

45:                                               ; preds = %39
  %46 = getelementptr inbounds nuw %struct.ossl_quic_frame_conn_close_st, ptr %6, i32 0, i32 3
  %47 = load ptr, ptr %46, align 8, !tbaa !73
  %48 = getelementptr inbounds nuw %struct.ossl_quic_frame_conn_close_st, ptr %6, i32 0, i32 4
  %49 = load i64, ptr %48, align 8, !tbaa !72
  %50 = load ptr, ptr getelementptr inbounds nuw (%struct.ossl_quic_frame_conn_close_st, ptr @encode_case_20_f, i32 0, i32 3), align 8, !tbaa !73
  %51 = call i32 @test_mem_eq(ptr noundef @.str.5, i32 noundef 1000, ptr noundef @.str.139, ptr noundef @.str.140, ptr noundef %47, i64 noundef %49, ptr noundef %50, i64 noundef 18)
  %52 = icmp ne i32 %51, 0
  br i1 %52, label %54, label %53

53:                                               ; preds = %45
  store i32 0, ptr %3, align 4
  store i32 1, ptr %7, align 4
  br label %55

54:                                               ; preds = %45
  store i32 1, ptr %3, align 4
  store i32 1, ptr %7, align 4
  br label %55

55:                                               ; preds = %54, %53, %44, %38, %32, %26, %19, %15
  call void @llvm.lifetime.end.p0(i64 40, ptr %6) #5
  %56 = load i32, ptr %3, align 4
  ret i32 %56
}