; Function Attrs: nounwind uwtable
define internal range(i32 0, 2) i32 @encode_case_20_dec(ptr noundef %0, i64 noundef %1) #0 {
  %3 = alloca %struct.ossl_quic_frame_conn_close_st, align 8
  call void @llvm.lifetime.start.p0(i64 40, ptr nonnull %3) #4
  call void @llvm.memset.p0.i64(ptr noundef nonnull align 8 dereferenceable(40) %3, i8 0, i64 40, i1 false)
  %4 = call i32 @ossl_quic_wire_decode_frame_conn_close(ptr noundef %0, ptr noundef nonnull %3) #4
  %.lobit = lshr i64 %1, 63
  %5 = trunc nuw nsw i64 %.lobit to i32
  %6 = call i32 @test_int_eq(ptr noundef nonnull @.str.5, i32 noundef 981, ptr noundef nonnull @.str.133, ptr noundef nonnull @.str.23, i32 noundef %4, i32 noundef %5) #4
  %.not = icmp eq i32 %6, 0
  br i1 %.not, label %31, label %7

7:                                                ; preds = %2
  %8 = icmp sgt i64 %1, -1
  br i1 %8, label %31, label %9

9:                                                ; preds = %7
  %10 = load i8, ptr %3, align 8
  %11 = and i8 %10, 1
  %12 = zext nneg i8 %11 to i32
  %13 = call i32 @test_int_eq(ptr noundef nonnull @.str.5, i32 noundef 987, ptr noundef nonnull @.str.134, ptr noundef nonnull @.str.68, i32 noundef %12, i32 noundef 0) #4
  %.not3 = icmp eq i32 %13, 0
  br i1 %.not3, label %31, label %14

14:                                               ; preds = %9
  %15 = getelementptr inbounds nuw i8, ptr %3, i64 8
  %16 = load i64, ptr %15, align 8, !tbaa !57
  %17 = call i32 @test_uint64_t_eq(ptr noundef nonnull @.str.5, i32 noundef 990, ptr noundef nonnull @.str.135, ptr noundef nonnull @.str.55, i64 noundef %16, i64 noundef 4660) #4
  %.not4 = icmp eq i32 %17, 0
  br i1 %.not4, label %31, label %18

18:                                               ; preds = %14
  %19 = getelementptr inbounds nuw i8, ptr %3, i64 16
  %20 = load i64, ptr %19, align 8, !tbaa !59
  %21 = call i32 @test_uint64_t_eq(ptr noundef nonnull @.str.5, i32 noundef 993, ptr noundef nonnull @.str.136, ptr noundef nonnull @.str.81, i64 noundef %20, i64 noundef 38785) #4
  %.not5 = icmp eq i32 %21, 0
  br i1 %.not5, label %31, label %22

22:                                               ; preds = %18
  %23 = getelementptr inbounds nuw i8, ptr %3, i64 32
  %24 = load i64, ptr %23, align 8, !tbaa !60
  %25 = call i32 @test_size_t_eq(ptr noundef nonnull @.str.5, i32 noundef 996, ptr noundef nonnull @.str.137, ptr noundef nonnull @.str.138, i64 noundef %24, i64 noundef 18) #4
  %.not6 = icmp eq i32 %25, 0
  br i1 %.not6, label %31, label %26

26:                                               ; preds = %22
  %27 = getelementptr inbounds nuw i8, ptr %3, i64 24
  %28 = load ptr, ptr %27, align 8, !tbaa !61
  %29 = load i64, ptr %23, align 8, !tbaa !60
  %30 = call i32 @test_mem_eq(ptr noundef nonnull @.str.5, i32 noundef 1000, ptr noundef nonnull @.str.139, ptr noundef nonnull @.str.140, ptr noundef %28, i64 noundef %29, ptr noundef nonnull @encode_case_20_reason, i64 noundef 18) #4
  %.not7 = icmp ne i32 %30, 0
  %. = zext i1 %.not7 to i32
  br label %31

31:                                               ; preds = %26, %22, %18, %14, %9, %7, %2
  %.0 = phi i32 [ 0, %2 ], [ 1, %7 ], [ 0, %9 ], [ 0, %14 ], [ 0, %18 ], [ 0, %22 ], [ %., %26 ]
  call void @llvm.lifetime.end.p0(i64 40, ptr nonnull %3) #4
  ret i32 %.0
}